target datalayout = "e-m:e-p270:32:32-p271:32:32-p272:64:64-i64:64-i128:128-f80:128-n8:16:32:64-S128"
target triple = "x86_64-pc-linux-gnu"

@.str = private unnamed_addr constant [12 x i8] c"kill_tree.c\00", align 1
@__func__.find_ancestor = private unnamed_addr constant [14 x i8] c"find_ancestor\00", align 1
@.str.1 = private unnamed_addr constant [15 x i8] c"/proc/%ld/stat\00", align 1
@.str.2 = private unnamed_addr constant [16 x i8] c"%ld %*s %*s %ld\00", align 1
@.str.3 = private unnamed_addr constant [18 x i8] c"/proc/%ld/cmdline\00", align 1

; Function Attrs: nounwind uwtable
define dso_local i32 @find_ancestor(i32 noundef %0, ptr noundef %1) #0 {
  %3 = alloca i32, align 4
  %4 = alloca ptr, align 8
  %5 = alloca [4096 x i8], align 16
  %6 = alloca ptr, align 8
  %7 = alloca i64, align 8
  %8 = alloca i32, align 4
  %9 = alloca i32, align 4
  %10 = alloca i64, align 8
  %11 = alloca i64, align 8
  store i32 %0, ptr %3, align 4
  store ptr %1, ptr %4, align 8
  call void @llvm.lifetime.start.p0(i64 4096, ptr %5) #6
  call void @llvm.lifetime.start.p0(i64 8, ptr %6) #6
  call void @llvm.lifetime.start.p0(i64 8, ptr %7) #6
  call void @llvm.lifetime.start.p0(i64 4, ptr %8) #6
  call void @llvm.lifetime.start.p0(i64 4, ptr %9) #6
  call void @llvm.lifetime.start.p0(i64 8, ptr %10) #6
  call void @llvm.lifetime.start.p0(i64 8, ptr %11) #6
  %12 = load ptr, ptr %4, align 8
  %13 = call i64 @strlen(ptr noundef %12) #8
  %14 = trunc i64 %13 to i32
  store i32 %14, ptr %9, align 4
  %15 = call ptr @slurm_xcalloc(i64 noundef 1, i64 noundef 4097, i1 noundef zeroext false, i1 noundef zeroext false, ptr noundef @.str, i32 noundef 331, ptr noundef @__func__.find_ancestor)
  store ptr %15, ptr %6, align 8
  %16 = load i32, ptr %3, align 4
  %17 = sext i32 %16 to i64
  store i64 %17, ptr %11, align 8
  store i64 %17, ptr %10, align 8
  br label %18

18:                                               ; preds = %100, %87, %67, %2
  br label %19

19:                                               ; preds = %18
  %20 = load i64, ptr %11, align 8
  %21 = icmp sle i64 %20, 1
  br i1 %21, label %22, label %23

22:                                               ; preds = %19
  store i64 0, ptr %10, align 8
  br label %101

23:                                               ; preds = %19
  %24 = getelementptr inbounds [4096 x i8], ptr %5, i64 0, i64 0
  %25 = load i64, ptr %11, align 8
  %26 = call i32 (ptr, i64, ptr, ...) @snprintf(ptr noundef %24, i64 noundef 4096, ptr noundef @.str.1, i64 noundef %25) #6
  %27 = getelementptr inbounds [4096 x i8], ptr %5, i64 0, i64 0
  %28 = call i32 (ptr, i32, ...) @open(ptr noundef %27, i32 noundef 0)
  store i32 %28, ptr %8, align 4
  %29 = icmp slt i32 %28, 0
  br i1 %29, label %30, label %31

30:                                               ; preds = %23
  store i64 0, ptr %10, align 8
  br label %101

31:                                               ; preds = %23
  %32 = load i32, ptr %8, align 4
  %33 = load ptr, ptr %6, align 8
  %34 = call i64 @read(i32 noundef %32, ptr noundef %33, i64 noundef 4096)
  store i64 %34, ptr %7, align 8
  %35 = load i64, ptr %7, align 8
  %36 = icmp sge i64 %35, 0
  br i1 %36, label %37, label %41

37:                                               ; preds = %31
  %38 = load ptr, ptr %6, align 8
  %39 = load i64, ptr %7, align 8
  %40 = getelementptr inbounds i8, ptr %38, i64 %39
  store i8 0, ptr %40, align 1
  br label %44

41:                                               ; preds = %31
  %42 = load ptr, ptr %6, align 8
  %43 = getelementptr inbounds i8, ptr %42, i64 0
  store i8 0, ptr %43, align 1
  br label %44

44:                                               ; preds = %41, %37
  %45 = load i64, ptr %7, align 8
  %46 = icmp sle i64 %45, 0
  br i1 %46, label %50, label %47

47:                                               ; preds = %44
  %48 = load i64, ptr %7, align 8
  %49 = icmp sge i64 %48, 4096
  br i1 %49, label %50, label %53

50:                                               ; preds = %47, %44
  %51 = load i32, ptr %8, align 4
  %52 = call i32 @close(i32 noundef %51)
  store i64 0, ptr %10, align 8
  br label %101

53:                                               ; preds = %47
  %54 = load i32, ptr %8, align 4
  %55 = call i32 @close(i32 noundef %54)
  %56 = load ptr, ptr %6, align 8
  %57 = call i32 (ptr, ptr, ...) @__isoc99_sscanf(ptr noundef %56, ptr noundef @.str.2, ptr noundef %10, ptr noundef %11) #6
  %58 = icmp ne i32 %57, 2
  br i1 %58, label %59, label %60

59:                                               ; preds = %53
  store i64 0, ptr %10, align 8
  br label %101

60:                                               ; preds = %53
  %61 = getelementptr inbounds [4096 x i8], ptr %5, i64 0, i64 0
  %62 = load i64, ptr %10, align 8
  %63 = call i32 (ptr, i64, ptr, ...) @snprintf(ptr noundef %61, i64 noundef 4096, ptr noundef @.str.3, i64 noundef %62) #6
  %64 = getelementptr inbounds [4096 x i8], ptr %5, i64 0, i64 0
  %65 = call i32 (ptr, i32, ...) @open(ptr noundef %64, i32 noundef 0)
  store i32 %65, ptr %8, align 4
  %66 = icmp slt i32 %65, 0
  br i1 %66, label %67, label %68

67:                                               ; preds = %60
  br label %18, !llvm.loop !18

68:                                               ; preds = %60
  %69 = load i32, ptr %8, align 4
  %70 = load ptr, ptr %6, align 8
  %71 = call i64 @read(i32 noundef %69, ptr noundef %70, i64 noundef 4096)
  store i64 %71, ptr %7, align 8
  %72 = load i64, ptr %7, align 8
  %73 = icmp sge i64 %72, 0
  br i1 %73, label %74, label %78

74:                                               ; preds = %68
  %75 = load ptr, ptr %6, align 8
  %76 = load i64, ptr %7, align 8
  %77 = getelementptr inbounds i8, ptr %75, i64 %76
  store i8 0, ptr %77, align 1
  br label %81

78:                                               ; preds = %68
  %79 = load ptr, ptr %6, align 8
  %80 = getelementptr inbounds i8, ptr %79, i64 0
  store i8 0, ptr %80, align 1
  br label %81

81:                                               ; preds = %78, %74
  %82 = load i64, ptr %7, align 8
  %83 = icmp sle i64 %82, 0
  br i1 %83, label %87, label %84

84:                                               ; preds = %81
  %85 = load i64, ptr %7, align 8
  %86 = icmp sge i64 %85, 4096
  br i1 %86, label %87, label %90

87:                                               ; preds = %84, %81
  %88 = load i32, ptr %8, align 4
  %89 = call i32 @close(i32 noundef %88)
  br label %18, !llvm.loop !18

90:                                               ; preds = %84
  %91 = load i32, ptr %8, align 4
  %92 = call i32 @close(i32 noundef %91)
  %93 = load ptr, ptr %6, align 8
  %94 = load ptr, ptr %4, align 8
  %95 = load i32, ptr %9, align 4
  %96 = sext i32 %95 to i64
  %97 = call i32 @strncmp(ptr noundef %93, ptr noundef %94, i64 noundef %96) #8
  %98 = icmp eq i32 %97, 0
  br i1 %98, label %99, label %100

99:                                               ; preds = %90
  br label %101

100:                                              ; preds = %90
  br label %18, !llvm.loop !18

101:                                              ; preds = %99, %59, %50, %30, %22
  call void @slurm_xfree(ptr noundef %6)
  %102 = load i64, ptr %10, align 8
  %103 = trunc i64 %102 to i32
  call void @llvm.lifetime.end.p0(i64 8, ptr %11) #6
  call void @llvm.lifetime.end.p0(i64 8, ptr %10) #6
  call void @llvm.lifetime.end.p0(i64 4, ptr %9) #6
  call void @llvm.lifetime.end.p0(i64 4, ptr %8) #6
  call void @llvm.lifetime.end.p0(i64 8, ptr %7) #6
  call void @llvm.lifetime.end.p0(i64 8, ptr %6) #6
  call void @llvm.lifetime.end.p0(i64 4096, ptr %5) #6
  ret i32 %103
}