; Function Attrs: nounwind uwtable
define dso_local i32 @find_ancestor(i32 noundef %0, ptr noundef readonly captures(none) %1) local_unnamed_addr #0 {
  %3 = alloca [4096 x i8], align 16
  %4 = alloca ptr, align 8
  %5 = alloca i64, align 8
  %6 = alloca i64, align 8
  call void @llvm.lifetime.start.p0(i64 4096, ptr nonnull %3) #9
  call void @llvm.lifetime.start.p0(i64 8, ptr nonnull %4) #9
  call void @llvm.lifetime.start.p0(i64 8, ptr nonnull %5) #9
  call void @llvm.lifetime.start.p0(i64 8, ptr nonnull %6) #9
  %7 = tail call i64 @strlen(ptr noundef nonnull dereferenceable(1) %1) #11
  %8 = tail call ptr @slurm_xcalloc(i64 noundef 1, i64 noundef 4097, i1 noundef zeroext false, i1 noundef zeroext false, ptr noundef nonnull @.str, i32 noundef 331, ptr noundef nonnull @__func__.find_ancestor) #9
  store ptr %8, ptr %4, align 8
  %9 = sext i32 %0 to i64
  store i64 %9, ptr %6, align 8
  store i64 %9, ptr %5, align 8
  %10 = icmp slt i32 %0, 2
  br i1 %10, label %.loopexit27.sink.split, label %.lr.ph

.lr.ph:                                           ; preds = %2
  %sext = shl i64 %7, 32
  %11 = ashr exact i64 %sext, 32
  br label %13

thread-pre-split:                                 ; preds = %41, %30, %43
  %.pr = load i64, ptr %6, align 8
  %12 = icmp slt i64 %.pr, 2
  br i1 %12, label %.loopexit27.sink.split, label %13

13:                                               ; preds = %.lr.ph, %thread-pre-split
  %14 = phi ptr [ %8, %.lr.ph ], [ %22, %thread-pre-split ]
  %15 = phi i64 [ %9, %.lr.ph ], [ %.pr, %thread-pre-split ]
  %16 = call i32 (ptr, i64, ptr, ...) @snprintf(ptr noundef nonnull dereferenceable(1) %3, i64 noundef 4096, ptr noundef nonnull @.str.1, i64 noundef %15) #9
  %17 = call i32 (ptr, i32, ...) @open(ptr noundef nonnull %3, i32 noundef 0) #9
  %18 = icmp slt i32 %17, 0
  br i1 %18, label %.loopexit27.sink.split, label %19

19:                                               ; preds = %13
  %20 = call i64 @read(i32 noundef %17, ptr noundef %14, i64 noundef 4096) #9
  %21 = icmp sgt i64 %20, -1
  %22 = load ptr, ptr %4, align 8
  br i1 %21, label %23, label %.thread

.thread:                                          ; preds = %19
  store i8 0, ptr %22, align 1
  br label %.loopexit

23:                                               ; preds = %19
  %24 = getelementptr inbounds nuw i8, ptr %22, i64 %20
  store i8 0, ptr %24, align 1
  %25 = add nsw i64 %20, -4096
  %or.cond = icmp ult i64 %25, -4095
  br i1 %or.cond, label %.loopexit, label %27

.loopexit:                                        ; preds = %23, %.thread
  %26 = call i32 @close(i32 noundef %17) #9
  br label %.loopexit27.sink.split

27:                                               ; preds = %23
  %28 = call i32 @close(i32 noundef %17) #9
  %29 = call i32 (ptr, ptr, ...) @__isoc99_sscanf(ptr noundef nonnull %22, ptr noundef nonnull @.str.2, ptr noundef nonnull %5, ptr noundef nonnull %6) #9
  %.not = icmp eq i32 %29, 2
  br i1 %.not, label %30, label %.loopexit27.sink.split

30:                                               ; preds = %27
  %31 = load i64, ptr %5, align 8
  %32 = call i32 (ptr, i64, ptr, ...) @snprintf(ptr noundef nonnull dereferenceable(1) %3, i64 noundef 4096, ptr noundef nonnull @.str.3, i64 noundef %31) #9
  %33 = call i32 (ptr, i32, ...) @open(ptr noundef nonnull %3, i32 noundef 0) #9
  %34 = icmp slt i32 %33, 0
  br i1 %34, label %thread-pre-split, label %35, !llvm.loop !19

35:                                               ; preds = %30
  %36 = call i64 @read(i32 noundef %33, ptr noundef nonnull %22, i64 noundef 4096) #9
  %37 = icmp sgt i64 %36, -1
  br i1 %37, label %38, label %.thread25

.thread25:                                        ; preds = %35
  store i8 0, ptr %22, align 1
  br label %41

38:                                               ; preds = %35
  %39 = getelementptr inbounds nuw i8, ptr %22, i64 %36
  store i8 0, ptr %39, align 1
  %40 = add nsw i64 %36, -4096
  %or.cond3 = icmp ult i64 %40, -4095
  br i1 %or.cond3, label %41, label %43

41:                                               ; preds = %.thread25, %38
  %42 = call i32 @close(i32 noundef %33) #9
  br label %thread-pre-split, !llvm.loop !19

43:                                               ; preds = %38
  %44 = call i32 @close(i32 noundef %33) #9
  %45 = call i32 @strncmp(ptr noundef nonnull %22, ptr noundef nonnull %1, i64 noundef %11) #11
  %46 = icmp eq i32 %45, 0
  br i1 %46, label %.loopexit27, label %thread-pre-split, !llvm.loop !19

.loopexit27.sink.split:                           ; preds = %27, %13, %thread-pre-split, %2, %.loopexit
  store i64 0, ptr %5, align 8
  br label %.loopexit27

.loopexit27:                                      ; preds = %43, %.loopexit27.sink.split
  call void @slurm_xfree(ptr noundef nonnull %4) #9
  %47 = load i64, ptr %5, align 8
  %48 = trunc i64 %47 to i32
  call void @llvm.lifetime.end.p0(i64 8, ptr nonnull %6) #9
  call void @llvm.lifetime.end.p0(i64 8, ptr nonnull %5) #9
  call void @llvm.lifetime.end.p0(i64 8, ptr nonnull %4) #9
  call void @llvm.lifetime.end.p0(i64 4096, ptr nonnull %3) #9
  ret i32 %48
}